target datalayout = "e-m:e-p270:32:32-p271:32:32-p272:64:64-i64:64-i128:128-f80:128-n8:16:32:64-S128"
target triple = "x86_64-pc-linux-gnu"

%struct.srun_opt_t = type { i16, ptr, ptr, ptr, i8, ptr, i16, i8, ptr, i32, i8, i8, i8, ptr, i8, i8, i8, i32, i32, i32, i8, i32, i32, i32, ptr, i8, i32, i8, i8, ptr, ptr, i32, i8, i8, ptr, ptr, ptr, i8, i32, i8, i32, ptr, ptr, i8, i8, i16, i8, i8 }
%struct.slurm_opt_t = type { ptr, ptr, ptr, ptr, ptr, ptr, ptr, ptr, i32, ptr, ptr, ptr, ptr, i32, i32, ptr, i32, i8, i8, i32, i8, i32, i32, ptr, i8, i32, i32, i64, i32, i32, i32, i32, i32, i32, ptr, i32, ptr, i8, i32, i32, ptr, i32, i32, i32, ptr, ptr, i32, i32, ptr, ptr, ptr, i32, i16, i16, i16, i8, i8, ptr, i8, i16, ptr, ptr, i32, i32, i32, ptr, ptr, ptr, ptr, ptr, ptr, i32, i64, i64, i64, i16, i64, ptr, ptr, ptr, ptr, ptr, ptr, ptr, i8, ptr, ptr, ptr, ptr, i8, i64, ptr, i16, ptr, i32, i32, ptr, ptr, i32, i32, i32, ptr, i32, i32, i32, i32, i32, ptr, i64, i32, i16, i32, ptr, ptr, ptr, ptr, ptr, i16, ptr, ptr, i16, i8, ptr, ptr, ptr, ptr }

@sropt = dso_local global %struct.srun_opt_t zeroinitializer, align 8
@opt_list = dso_local global ptr null, align 8
@get_next_opt.offset_last = internal global i32 -2, align 4
@get_next_opt.opt_last = internal global ptr null, align 8

; Function Attrs: nounwind uwtable
define internal ptr @_get_next_opt(i32 noundef %0, ptr noundef %1) #0 {
  %3 = alloca ptr, align 8
  %4 = alloca i32, align 4
  %5 = alloca ptr, align 8
  %6 = alloca ptr, align 8
  %7 = alloca ptr, align 8
  %8 = alloca i8, align 1
  %9 = alloca i32, align 4
  %10 = alloca ptr, align 8
  store i32 %0, ptr %4, align 4
  store ptr %1, ptr %5, align 8
  call void @llvm.lifetime.start.p0(i64 8, ptr %6) #9
  call void @llvm.lifetime.start.p0(i64 8, ptr %7) #9
  call void @llvm.lifetime.start.p0(i64 1, ptr %8) #9
  store i8 0, ptr %8, align 1
  %11 = load ptr, ptr @opt_list, align 8
  %12 = icmp ne ptr %11, null
  br i1 %12, label %14, label %13

13:                                               ; preds = %2
  store ptr null, ptr %3, align 8
  store i32 1, ptr %9, align 4
  br label %65

14:                                               ; preds = %2
  %15 = load ptr, ptr @opt_list, align 8
  %16 = call ptr @list_iterator_create(ptr noundef %15)
  store ptr %16, ptr %6, align 8
  br label %17

17:                                               ; preds = %61, %59, %14
  %18 = load ptr, ptr %6, align 8
  %19 = call ptr @list_next(ptr noundef %18)
  store ptr %19, ptr %7, align 8
  %20 = icmp ne ptr %19, null
  br i1 %20, label %21, label %62

21:                                               ; preds = %17
  call void @llvm.lifetime.start.p0(i64 8, ptr %10) #9
  %22 = load ptr, ptr %7, align 8
  %23 = getelementptr inbounds nuw %struct.slurm_opt_t, ptr %22, i32 0, i32 3
  %24 = load ptr, ptr %23, align 8
  store ptr %24, ptr %10, align 8
  %25 = load i8, ptr %8, align 1, !range !11, !noundef !12
  %26 = trunc i8 %25 to i1
  br i1 %26, label %33, label %27

27:                                               ; preds = %21
  %28 = load ptr, ptr %5, align 8
  %29 = load ptr, ptr %7, align 8
  %30 = icmp eq ptr %28, %29
  br i1 %30, label %31, label %32

31:                                               ; preds = %27
  store i8 1, ptr %8, align 1
  br label %32

32:                                               ; preds = %31, %27
  store i32 2, ptr %9, align 4
  br label %59, !llvm.loop !13

33:                                               ; preds = %21
  %34 = load ptr, ptr %10, align 8
  %35 = getelementptr inbounds nuw %struct.srun_opt_t, ptr %34, i32 0, i32 30
  %36 = load ptr, ptr %35, align 8
  %37 = icmp ne ptr %36, null
  br i1 %37, label %38, label %58

38:                                               ; preds = %33
  %39 = load i32, ptr %4, align 4
  %40 = icmp sge i32 %39, 0
  br i1 %40, label %41, label %58

41:                                               ; preds = %38
  %42 = load i32, ptr %4, align 4
  %43 = sext i32 %42 to i64
  %44 = load ptr, ptr %10, align 8
  %45 = getelementptr inbounds nuw %struct.srun_opt_t, ptr %44, i32 0, i32 30
  %46 = load ptr, ptr %45, align 8
  %47 = call i64 @bit_size(ptr noundef %46)
  %48 = icmp slt i64 %43, %47
  br i1 %48, label %49, label %58

49:                                               ; preds = %41
  %50 = load ptr, ptr %10, align 8
  %51 = getelementptr inbounds nuw %struct.srun_opt_t, ptr %50, i32 0, i32 30
  %52 = load ptr, ptr %51, align 8
  %53 = load i32, ptr %4, align 4
  %54 = sext i32 %53 to i64
  %55 = call i32 @slurm_bit_test(ptr noundef %52, i64 noundef %54)
  %56 = icmp ne i32 %55, 0
  br i1 %56, label %57, label %58

57:                                               ; preds = %49
  store i32 3, ptr %9, align 4
  br label %59

58:                                               ; preds = %49, %41, %38, %33
  store i32 0, ptr %9, align 4
  br label %59

59:                                               ; preds = %58, %57, %32
  call void @llvm.lifetime.end.p0(i64 8, ptr %10) #9
  %60 = load i32, ptr %9, align 4
  switch i32 %60, label %67 [
    i32 0, label %61
    i32 2, label %17
    i32 3, label %62
  ]

61:                                               ; preds = %59
  br label %17, !llvm.loop !13

62:                                               ; preds = %59, %17
  %63 = load ptr, ptr %6, align 8
  call void @list_iterator_destroy(ptr noundef %63)
  %64 = load ptr, ptr %7, align 8
  store ptr %64, ptr %3, align 8
  store i32 1, ptr %9, align 4
  br label %65

65:                                               ; preds = %62, %13
  call void @llvm.lifetime.end.p0(i64 1, ptr %8) #9
  call void @llvm.lifetime.end.p0(i64 8, ptr %7) #9
  call void @llvm.lifetime.end.p0(i64 8, ptr %6) #9
  %66 = load ptr, ptr %3, align 8
  ret ptr %66

67:                                               ; preds = %59
  unreachable
}

; Function Attrs: nounwind uwtable
define internal ptr @_get_first_opt(i32 noundef %0) #0 {
  %2 = alloca ptr, align 8
  %3 = alloca i32, align 4
  %4 = alloca ptr, align 8
  %5 = alloca ptr, align 8
  %6 = alloca i32, align 4
  %7 = alloca ptr, align 8
  store i32 %0, ptr %3, align 4
  call void @llvm.lifetime.start.p0(i64 8, ptr %4) #9
  call void @llvm.lifetime.start.p0(i64 8, ptr %5) #9
  %8 = load ptr, ptr @opt_list, align 8
  %9 = icmp ne ptr %8, null
  br i1 %9, label %37, label %10

10:                                               ; preds = %1
  %11 = load ptr, ptr getelementptr inbounds nuw (%struct.srun_opt_t, ptr @sropt, i32 0, i32 30), align 8
  %12 = icmp ne ptr %11, null
  br i1 %12, label %17, label %13

13:                                               ; preds = %10
  %14 = load i32, ptr %3, align 4
  %15 = icmp eq i32 %14, -1
  br i1 %15, label %16, label %17

16:                                               ; preds = %13
  store ptr @opt, ptr %2, align 8
  store i32 1, ptr %6, align 4
  br label %79

17:                                               ; preds = %13, %10
  %18 = load ptr, ptr getelementptr inbounds nuw (%struct.srun_opt_t, ptr @sropt, i32 0, i32 30), align 8
  %19 = icmp ne ptr %18, null
  br i1 %19, label %20, label %36

20:                                               ; preds = %17
  %21 = load i32, ptr %3, align 4
  %22 = icmp sge i32 %21, 0
  br i1 %22, label %23, label %36

23:                                               ; preds = %20
  %24 = load i32, ptr %3, align 4
  %25 = sext i32 %24 to i64
  %26 = load ptr, ptr getelementptr inbounds nuw (%struct.srun_opt_t, ptr @sropt, i32 0, i32 30), align 8
  %27 = call i64 @bit_size(ptr noundef %26)
  %28 = icmp slt i64 %25, %27
  br i1 %28, label %29, label %36

29:                                               ; preds = %23
  %30 = load ptr, ptr getelementptr inbounds nuw (%struct.srun_opt_t, ptr @sropt, i32 0, i32 30), align 8
  %31 = load i32, ptr %3, align 4
  %32 = sext i32 %31 to i64
  %33 = call i32 @slurm_bit_test(ptr noundef %30, i64 noundef %32)
  %34 = icmp ne i32 %33, 0
  br i1 %34, label %35, label %36

35:                                               ; preds = %29
  store ptr @opt, ptr %2, align 8
  store i32 1, ptr %6, align 4
  br label %79

36:                                               ; preds = %29, %23, %20, %17
  store ptr null, ptr %2, align 8
  store i32 1, ptr %6, align 4
  br label %79

37:                                               ; preds = %1
  %38 = load ptr, ptr @opt_list, align 8
  %39 = call ptr @list_iterator_create(ptr noundef %38)
  store ptr %39, ptr %4, align 8
  br label %40

40:                                               ; preds = %75, %37
  %41 = load ptr, ptr %4, align 8
  %42 = call ptr @list_next(ptr noundef %41)
  store ptr %42, ptr %5, align 8
  %43 = icmp ne ptr %42, null
  br i1 %43, label %44, label %76

44:                                               ; preds = %40
  call void @llvm.lifetime.start.p0(i64 8, ptr %7) #9
  %45 = load ptr, ptr %5, align 8
  %46 = getelementptr inbounds nuw %struct.slurm_opt_t, ptr %45, i32 0, i32 3
  %47 = load ptr, ptr %46, align 8
  store ptr %47, ptr %7, align 8
  %48 = load ptr, ptr %7, align 8
  %49 = getelementptr inbounds nuw %struct.srun_opt_t, ptr %48, i32 0, i32 30
  %50 = load ptr, ptr %49, align 8
  %51 = icmp ne ptr %50, null
  br i1 %51, label %52, label %72

52:                                               ; preds = %44
  %53 = load i32, ptr %3, align 4
  %54 = icmp sge i32 %53, 0
  br i1 %54, label %55, label %72

55:                                               ; preds = %52
  %56 = load i32, ptr %3, align 4
  %57 = sext i32 %56 to i64
  %58 = load ptr, ptr %7, align 8
  %59 = getelementptr inbounds nuw %struct.srun_opt_t, ptr %58, i32 0, i32 30
  %60 = load ptr, ptr %59, align 8
  %61 = call i64 @bit_size(ptr noundef %60)
  %62 = icmp slt i64 %57, %61
  br i1 %62, label %63, label %72

63:                                               ; preds = %55
  %64 = load ptr, ptr %7, align 8
  %65 = getelementptr inbounds nuw %struct.srun_opt_t, ptr %64, i32 0, i32 30
  %66 = load ptr, ptr %65, align 8
  %67 = load i32, ptr %3, align 4
  %68 = sext i32 %67 to i64
  %69 = call i32 @slurm_bit_test(ptr noundef %66, i64 noundef %68)
  %70 = icmp ne i32 %69, 0
  br i1 %70, label %71, label %72

71:                                               ; preds = %63
  store i32 3, ptr %6, align 4
  br label %73

72:                                               ; preds = %63, %55, %52, %44
  store i32 0, ptr %6, align 4
  br label %73

73:                                               ; preds = %72, %71
  call void @llvm.lifetime.end.p0(i64 8, ptr %7) #9
  %74 = load i32, ptr %6, align 4
  switch i32 %74, label %81 [
    i32 0, label %75
    i32 3, label %76
  ]

75:                                               ; preds = %73
  br label %40, !llvm.loop !8

76:                                               ; preds = %73, %40
  %77 = load ptr, ptr %4, align 8
  call void @list_iterator_destroy(ptr noundef %77)
  %78 = load ptr, ptr %5, align 8
  store ptr %78, ptr %2, align 8
  store i32 1, ptr %6, align 4
  br label %79

79:                                               ; preds = %76, %36, %35, %16
  call void @llvm.lifetime.end.p0(i64 8, ptr %5) #9
  call void @llvm.lifetime.end.p0(i64 8, ptr %4) #9
  %80 = load ptr, ptr %2, align 8
  ret ptr %80

81:                                               ; preds = %73
  unreachable
}

; Function Attrs: nounwind uwtable
define dso_local ptr @get_next_opt(i32 noundef %0) #0 {
  %2 = alloca ptr, align 8
  %3 = alloca i32, align 4
  store i32 %0, ptr %3, align 4
  %4 = load i32, ptr %3, align 4
  %5 = icmp eq i32 %4, -2
  br i1 %5, label %6, label %7

6:                                                ; preds = %1
  store i32 -2, ptr @get_next_opt.offset_last, align 4
  store ptr null, ptr @get_next_opt.opt_last, align 8
  store ptr null, ptr %2, align 8
  br label %21

7:                                                ; preds = %1
  %8 = load i32, ptr @get_next_opt.offset_last, align 4
  %9 = load i32, ptr %3, align 4
  %10 = icmp ne i32 %8, %9
  br i1 %10, label %11, label %15

11:                                               ; preds = %7
  %12 = load i32, ptr %3, align 4
  store i32 %12, ptr @get_next_opt.offset_last, align 4
  %13 = load i32, ptr %3, align 4
  %14 = call ptr @_get_first_opt(i32 noundef %13)
  store ptr %14, ptr @get_next_opt.opt_last, align 8
  br label %19

15:                                               ; preds = %7
  %16 = load i32, ptr %3, align 4
  %17 = load ptr, ptr @get_next_opt.opt_last, align 8
  %18 = call ptr @_get_next_opt(i32 noundef %16, ptr noundef %17)
  store ptr %18, ptr @get_next_opt.opt_last, align 8
  br label %19

19:                                               ; preds = %15, %11
  %20 = load ptr, ptr @get_next_opt.opt_last, align 8
  store ptr %20, ptr %2, align 8
  br label %21

21:                                               ; preds = %19, %6
  %22 = load ptr, ptr %2, align 8
  ret ptr %22
}