; Function Attrs: nounwind uwtable
define dso_local ptr @get_next_opt(i32 noundef %0) local_unnamed_addr #0 {
  %2 = icmp eq i32 %0, -2
  br i1 %2, label %3, label %4

3:                                                ; preds = %1
  store i32 -2, ptr @get_next_opt.offset_last, align 4
  br label %_get_first_opt.exit

4:                                                ; preds = %1
  %5 = load i32, ptr @get_next_opt.offset_last, align 4
  %.not = icmp eq i32 %5, %0
  br i1 %.not, label %42, label %6

6:                                                ; preds = %4
  store i32 %0, ptr @get_next_opt.offset_last, align 4
  %7 = load ptr, ptr @opt_list, align 8
  %.not.i = icmp eq ptr %7, null
  br i1 %.not.i, label %8, label %23

8:                                                ; preds = %6
  %9 = load ptr, ptr getelementptr inbounds nuw (i8, ptr @sropt, i64 144), align 8
  %10 = icmp eq ptr %9, null
  %11 = icmp eq i32 %0, -1
  %or.cond.i = and i1 %11, %10
  br i1 %or.cond.i, label %_get_first_opt.exit, label %12

12:                                               ; preds = %8
  %13 = icmp ne ptr %9, null
  %14 = icmp sgt i32 %0, -1
  %or.cond3.i = and i1 %14, %13
  br i1 %or.cond3.i, label %15, label %22

15:                                               ; preds = %12
  %16 = zext nneg i32 %0 to i64
  %17 = tail call i64 @bit_size(ptr noundef nonnull %9) #17
  %18 = icmp sgt i64 %17, %16
  br i1 %18, label %19, label %22

19:                                               ; preds = %15
  %20 = load ptr, ptr getelementptr inbounds nuw (i8, ptr @sropt, i64 144), align 8
  %21 = tail call i32 @slurm_bit_test(ptr noundef %20, i64 noundef %16) #17
  %.not28.i = icmp eq i32 %21, 0
  br i1 %.not28.i, label %22, label %_get_first_opt.exit

22:                                               ; preds = %19, %15, %12
  br label %_get_first_opt.exit

23:                                               ; preds = %6
  %24 = tail call ptr @list_iterator_create(ptr noundef nonnull %7) #17
  %25 = tail call ptr @list_next(ptr noundef %24) #17
  %.not2933.i = icmp eq ptr %25, null
  br i1 %.not2933.i, label %.thread.i, label %.lr.ph.i

.lr.ph.i:                                         ; preds = %23
  %26 = icmp sgt i32 %0, -1
  %27 = zext nneg i32 %0 to i64
  br i1 %26, label %.lr.ph.split.i, label %.lr.ph.split.us.i

.lr.ph.split.us.i:                                ; preds = %.lr.ph.i, %.lr.ph.split.us.i
  %28 = tail call ptr @list_next(ptr noundef %24) #17
  %.not29.us.i = icmp eq ptr %28, null
  br i1 %.not29.us.i, label %.thread.i, label %.lr.ph.split.us.i

.lr.ph.split.i:                                   ; preds = %.lr.ph.i, %40
  %29 = phi ptr [ %41, %40 ], [ %25, %.lr.ph.i ]
  %30 = getelementptr inbounds nuw i8, ptr %29, i64 24
  %31 = load ptr, ptr %30, align 8
  %32 = getelementptr inbounds nuw i8, ptr %31, i64 144
  %33 = load ptr, ptr %32, align 8
  %.not36.i = icmp eq ptr %33, null
  br i1 %.not36.i, label %40, label %34

34:                                               ; preds = %.lr.ph.split.i
  %35 = tail call i64 @bit_size(ptr noundef nonnull %33) #17
  %36 = icmp sgt i64 %35, %27
  br i1 %36, label %37, label %40

37:                                               ; preds = %34
  %38 = load ptr, ptr %32, align 8
  %39 = tail call i32 @slurm_bit_test(ptr noundef %38, i64 noundef %27) #17
  %.not30.i = icmp eq i32 %39, 0
  br i1 %.not30.i, label %40, label %.thread.i

40:                                               ; preds = %37, %34, %.lr.ph.split.i
  %41 = tail call ptr @list_next(ptr noundef %24) #17
  %.not29.i = icmp eq ptr %41, null
  br i1 %.not29.i, label %.thread.i, label %.lr.ph.split.i

.thread.i:                                        ; preds = %.lr.ph.split.us.i, %40, %37, %23
  %.lcssa.i = phi ptr [ null, %23 ], [ null, %40 ], [ %29, %37 ], [ null, %.lr.ph.split.us.i ]
  tail call void @list_iterator_destroy(ptr noundef %24) #17
  br label %_get_first_opt.exit

42:                                               ; preds = %4
  %43 = load ptr, ptr @get_next_opt.opt_last, align 8
  %44 = load ptr, ptr @opt_list, align 8
  %.not.i7 = icmp eq ptr %44, null
  br i1 %.not.i7, label %_get_first_opt.exit, label %45

45:                                               ; preds = %42
  %46 = tail call ptr @list_iterator_create(ptr noundef nonnull %44) #17
  %47 = tail call ptr @list_next(ptr noundef %46) #17
  %.not2228.i = icmp eq ptr %47, null
  br i1 %.not2228.i, label %.thread.i10, label %.lr.ph.i8

.lr.ph.i8:                                        ; preds = %45
  %48 = icmp sgt i32 %0, -1
  %49 = zext nneg i32 %0 to i64
  br i1 %48, label %.lr.ph.split.i13, label %.lr.ph.split.us.i9

.lr.ph.split.us.i9:                               ; preds = %.lr.ph.i8, %.lr.ph.split.us.i9
  %50 = tail call ptr @list_next(ptr noundef %46) #17
  %.not22.us.i = icmp eq ptr %50, null
  br i1 %.not22.us.i, label %.thread.i10, label %.lr.ph.split.us.i9

.lr.ph.split.i13:                                 ; preds = %.lr.ph.i8, %65
  %51 = phi ptr [ %66, %65 ], [ %47, %.lr.ph.i8 ]
  %.01629.i = phi i1 [ %.2.i, %65 ], [ false, %.lr.ph.i8 ]
  br i1 %.01629.i, label %54, label %52

52:                                               ; preds = %.lr.ph.split.i13
  %53 = icmp eq ptr %43, %51
  br label %65, !llvm.loop !8

54:                                               ; preds = %.lr.ph.split.i13
  %55 = getelementptr inbounds nuw i8, ptr %51, i64 24
  %56 = load ptr, ptr %55, align 8
  %57 = getelementptr inbounds nuw i8, ptr %56, i64 144
  %58 = load ptr, ptr %57, align 8
  %.not32.i = icmp eq ptr %58, null
  br i1 %.not32.i, label %65, label %59

59:                                               ; preds = %54
  %60 = tail call i64 @bit_size(ptr noundef nonnull %58) #17
  %61 = icmp sgt i64 %60, %49
  br i1 %61, label %62, label %65

62:                                               ; preds = %59
  %63 = load ptr, ptr %57, align 8
  %64 = tail call i32 @slurm_bit_test(ptr noundef %63, i64 noundef %49) #17
  %.not23.i = icmp eq i32 %64, 0
  br i1 %.not23.i, label %65, label %.thread.i10

65:                                               ; preds = %62, %59, %54, %52
  %.2.i = phi i1 [ %53, %52 ], [ true, %62 ], [ true, %59 ], [ true, %54 ]
  %66 = tail call ptr @list_next(ptr noundef %46) #17
  %.not22.i = icmp eq ptr %66, null
  br i1 %.not22.i, label %.thread.i10, label %.lr.ph.split.i13

.thread.i10:                                      ; preds = %.lr.ph.split.us.i9, %65, %62, %45
  %.lcssa.i11 = phi ptr [ null, %45 ], [ null, %65 ], [ %51, %62 ], [ null, %.lr.ph.split.us.i9 ]
  tail call void @list_iterator_destroy(ptr noundef %46) #17
  br label %_get_first_opt.exit

_get_first_opt.exit:                              ; preds = %.thread.i10, %42, %.thread.i, %22, %19, %8, %3
  %storemerge6 = phi ptr [ null, %3 ], [ %.lcssa.i, %.thread.i ], [ null, %22 ], [ @opt, %8 ], [ @opt, %19 ], [ %.lcssa.i11, %.thread.i10 ], [ null, %42 ]
  store ptr %storemerge6, ptr @get_next_opt.opt_last, align 8
  ret ptr %storemerge6
}